target datalayout = "e-m:e-p270:32:32-p271:32:32-p272:64:64-i64:64-i128:128-f80:128-n8:16:32:64-S128"
target triple = "x86_64-pc-linux-gnu"

%"class.std::__cxx11::basic_string" = type { %"struct.std::__cxx11::basic_string<char>::_Alloc_hider", i64, %union.anon }
%"struct.std::__cxx11::basic_string<char>::_Alloc_hider" = type { ptr }
%union.anon = type { i64, [8 x i8] }
%"struct.pxrInternal_v0_24__pxrReserved__::HgiShaderFunctionBufferDesc" = type <{ %"class.std::__cxx11::basic_string", %"class.std::__cxx11::basic_string", i32, i32, i32, i8, [3 x i8] }>

; Function Attrs: noreturn nounwind uwtable
define linkonce_odr hidden void @__clang_call_terminate(ptr noundef %0) #6 comdat {
  %2 = call ptr @__cxa_begin_catch(ptr %0) #10
  call void @_ZSt9terminatev() #12
  unreachable
}

; Function Attrs: mustprogress nounwind uwtable
define linkonce_odr noundef i32 @_ZNSt11char_traitsIcE7compareEPKcS2_m(ptr noundef %0, ptr noundef %1, i64 noundef %2) #0 comdat align 2 {
  %4 = alloca i32, align 4
  %5 = alloca ptr, align 8
  %6 = alloca ptr, align 8
  %7 = alloca i64, align 8
  store ptr %0, ptr %5, align 8
  store ptr %1, ptr %6, align 8
  store i64 %2, ptr %7, align 8
  %8 = load i64, ptr %7, align 8
  %9 = icmp eq i64 %8, 0
  br i1 %9, label %10, label %11

10:                                               ; preds = %3
  store i32 0, ptr %4, align 4
  br label %16

11:                                               ; preds = %3
  %12 = load ptr, ptr %5, align 8
  %13 = load ptr, ptr %6, align 8
  %14 = load i64, ptr %7, align 8
  %15 = call i32 @memcmp(ptr noundef %12, ptr noundef %13, i64 noundef %14) #10
  store i32 %15, ptr %4, align 4
  br label %16

16:                                               ; preds = %11, %10
  %17 = load i32, ptr %4, align 4
  ret i32 %17
}

; Function Attrs: mustprogress nounwind uwtable
define linkonce_odr noundef zeroext i1 @_ZSteqIcEN9__gnu_cxx11__enable_ifIXsr9__is_charIT_EE7__valueEbE6__typeERKNSt7__cxx1112basic_stringIS2_St11char_traitsIS2_ESaIS2_EEESC_(ptr noundef nonnull align 8 dereferenceable(32) %0, ptr noundef nonnull align 8 dereferenceable(32) %1) #0 comdat personality ptr @__gxx_personality_v0 {
  %3 = alloca ptr, align 8
  %4 = alloca ptr, align 8
  store ptr %0, ptr %3, align 8
  store ptr %1, ptr %4, align 8
  %5 = load ptr, ptr %3, align 8
  %6 = call noundef i64 @_ZNKSt7__cxx1112basic_stringIcSt11char_traitsIcESaIcEE4sizeEv(ptr noundef nonnull align 8 dereferenceable(32) %5) #10
  %7 = load ptr, ptr %4, align 8
  %8 = call noundef i64 @_ZNKSt7__cxx1112basic_stringIcSt11char_traitsIcESaIcEE4sizeEv(ptr noundef nonnull align 8 dereferenceable(32) %7) #10
  %9 = icmp eq i64 %6, %8
  br i1 %9, label %10, label %21

10:                                               ; preds = %2
  %11 = load ptr, ptr %3, align 8
  %12 = call noundef ptr @_ZNKSt7__cxx1112basic_stringIcSt11char_traitsIcESaIcEE4dataEv(ptr noundef nonnull align 8 dereferenceable(32) %11) #10
  %13 = load ptr, ptr %4, align 8
  %14 = call noundef ptr @_ZNKSt7__cxx1112basic_stringIcSt11char_traitsIcESaIcEE4dataEv(ptr noundef nonnull align 8 dereferenceable(32) %13) #10
  %15 = load ptr, ptr %3, align 8
  %16 = call noundef i64 @_ZNKSt7__cxx1112basic_stringIcSt11char_traitsIcESaIcEE4sizeEv(ptr noundef nonnull align 8 dereferenceable(32) %15) #10
  %17 = invoke noundef i32 @_ZNSt11char_traitsIcE7compareEPKcS2_m(ptr noundef %12, ptr noundef %14, i64 noundef %16)
          to label %18 unwind label %23

18:                                               ; preds = %10
  %19 = icmp ne i32 %17, 0
  %20 = xor i1 %19, true
  br label %21

21:                                               ; preds = %18, %2
  %22 = phi i1 [ false, %2 ], [ %20, %18 ]
  ret i1 %22

23:                                               ; preds = %10
  %24 = landingpad { ptr, i32 }
          catch ptr null
  %25 = extractvalue { ptr, i32 } %24, 0
  call void @__clang_call_terminate(ptr %25) #12
  unreachable
}

; Function Attrs: mustprogress nounwind uwtable
define noundef zeroext i1 @_ZN32pxrInternal_v0_24__pxrReserved__eqERKNS_27HgiShaderFunctionBufferDescES2_(ptr noundef nonnull align 8 dereferenceable(77) %0, ptr noundef nonnull align 8 dereferenceable(77) %1) #0 {
  %3 = alloca ptr, align 8
  %4 = alloca ptr, align 8
  store ptr %0, ptr %3, align 8
  store ptr %1, ptr %4, align 8
  %5 = load ptr, ptr %3, align 8
  %6 = getelementptr inbounds nuw %"struct.pxrInternal_v0_24__pxrReserved__::HgiShaderFunctionBufferDesc", ptr %5, i32 0, i32 0
  %7 = load ptr, ptr %4, align 8
  %8 = getelementptr inbounds nuw %"struct.pxrInternal_v0_24__pxrReserved__::HgiShaderFunctionBufferDesc", ptr %7, i32 0, i32 0
  %9 = call noundef zeroext i1 @_ZSteqIcEN9__gnu_cxx11__enable_ifIXsr9__is_charIT_EE7__valueEbE6__typeERKNSt7__cxx1112basic_stringIS2_St11char_traitsIS2_ESaIS2_EEESC_(ptr noundef nonnull align 8 dereferenceable(32) %6, ptr noundef nonnull align 8 dereferenceable(32) %8) #10
  br i1 %9, label %10, label %52

10:                                               ; preds = %2
  %11 = load ptr, ptr %3, align 8
  %12 = getelementptr inbounds nuw %"struct.pxrInternal_v0_24__pxrReserved__::HgiShaderFunctionBufferDesc", ptr %11, i32 0, i32 1
  %13 = load ptr, ptr %4, align 8
  %14 = getelementptr inbounds nuw %"struct.pxrInternal_v0_24__pxrReserved__::HgiShaderFunctionBufferDesc", ptr %13, i32 0, i32 1
  %15 = call noundef zeroext i1 @_ZSteqIcEN9__gnu_cxx11__enable_ifIXsr9__is_charIT_EE7__valueEbE6__typeERKNSt7__cxx1112basic_stringIS2_St11char_traitsIS2_ESaIS2_EEESC_(ptr noundef nonnull align 8 dereferenceable(32) %12, ptr noundef nonnull align 8 dereferenceable(32) %14) #10
  br i1 %15, label %16, label %52

16:                                               ; preds = %10
  %17 = load ptr, ptr %3, align 8
  %18 = getelementptr inbounds nuw %"struct.pxrInternal_v0_24__pxrReserved__::HgiShaderFunctionBufferDesc", ptr %17, i32 0, i32 2
  %19 = load i32, ptr %18, align 8
  %20 = load ptr, ptr %4, align 8
  %21 = getelementptr inbounds nuw %"struct.pxrInternal_v0_24__pxrReserved__::HgiShaderFunctionBufferDesc", ptr %20, i32 0, i32 2
  %22 = load i32, ptr %21, align 8
  %23 = icmp eq i32 %19, %22
  br i1 %23, label %24, label %52

24:                                               ; preds = %16
  %25 = load ptr, ptr %3, align 8
  %26 = getelementptr inbounds nuw %"struct.pxrInternal_v0_24__pxrReserved__::HgiShaderFunctionBufferDesc", ptr %25, i32 0, i32 3
  %27 = load i32, ptr %26, align 4
  %28 = load ptr, ptr %4, align 8
  %29 = getelementptr inbounds nuw %"struct.pxrInternal_v0_24__pxrReserved__::HgiShaderFunctionBufferDesc", ptr %28, i32 0, i32 3
  %30 = load i32, ptr %29, align 4
  %31 = icmp eq i32 %27, %30
  br i1 %31, label %32, label %52

32:                                               ; preds = %24
  %33 = load ptr, ptr %3, align 8
  %34 = getelementptr inbounds nuw %"struct.pxrInternal_v0_24__pxrReserved__::HgiShaderFunctionBufferDesc", ptr %33, i32 0, i32 4
  %35 = load i32, ptr %34, align 8
  %36 = load ptr, ptr %4, align 8
  %37 = getelementptr inbounds nuw %"struct.pxrInternal_v0_24__pxrReserved__::HgiShaderFunctionBufferDesc", ptr %36, i32 0, i32 4
  %38 = load i32, ptr %37, align 8
  %39 = icmp eq i32 %35, %38
  br i1 %39, label %40, label %52

40:                                               ; preds = %32
  %41 = load ptr, ptr %3, align 8
  %42 = getelementptr inbounds nuw %"struct.pxrInternal_v0_24__pxrReserved__::HgiShaderFunctionBufferDesc", ptr %41, i32 0, i32 5
  %43 = load i8, ptr %42, align 4
  %44 = trunc i8 %43 to i1
  %45 = zext i1 %44 to i32
  %46 = load ptr, ptr %4, align 8
  %47 = getelementptr inbounds nuw %"struct.pxrInternal_v0_24__pxrReserved__::HgiShaderFunctionBufferDesc", ptr %46, i32 0, i32 5
  %48 = load i8, ptr %47, align 4
  %49 = trunc i8 %48 to i1
  %50 = zext i1 %49 to i32
  %51 = icmp eq i32 %45, %50
  br label %52

52:                                               ; preds = %40, %32, %24, %16, %10, %2
  %53 = phi i1 [ false, %32 ], [ false, %24 ], [ false, %16 ], [ false, %10 ], [ false, %2 ], [ %51, %40 ]
  ret i1 %53
}